; ModuleID = '54/1073.c'
source_filename = "54/1073.c"
target datalayout = "e-m:e-p270:32:32-p271:32:32-p272:64:64-i64:64-f80:128-n8:16:32:64-S128"
target triple = "x86_64-pc-linux-gnu"

@.str = private unnamed_addr constant [4 x i8] c"%d\0A\00", align 1
@.str.1 = private unnamed_addr constant [5 x i8] c"%d%d\00", align 1

; Function Attrs: noinline nounwind uwtable
define dso_local i32 @num(i32 %0, i32 %1, i32 %2, i32 %3) #0 {
  %5 = alloca i32, align 4
  %6 = alloca i32, align 4
  %7 = alloca i32, align 4
  %8 = alloca i32, align 4
  %9 = alloca i32, align 4
  store i32 %0, i32* %6, align 4
  store i32 %1, i32* %7, align 4
  store i32 %2, i32* %8, align 4
  store i32 %3, i32* %9, align 4
  %10 = load i32, i32* %9, align 4
  %11 = load i32, i32* %7, align 4
  %12 = icmp eq i32 %10, %11
  br i1 %12, label %13, label %16

13:                                               ; preds = %4
  %14 = load i32, i32* %6, align 4
  %15 = call i32 (i8*, ...) @printf(i8* getelementptr inbounds ([4 x i8], [4 x i8]* @.str, i64 0, i64 0), i32 %14)
  call void @exit(i32 1) #3
  unreachable

16:                                               ; preds = %4
  %17 = load i32, i32* %9, align 4
  %18 = load i32, i32* %7, align 4
  %19 = icmp ne i32 %17, %18
  br i1 %19, label %20, label %43

20:                                               ; preds = %16
  %21 = load i32, i32* %6, align 4
  %22 = load i32, i32* %7, align 4
  %23 = sub nsw i32 %22, 1
  %24 = srem i32 %21, %23
  %25 = icmp ne i32 %24, 0
  br i1 %25, label %26, label %27

26:                                               ; preds = %20
  store i32 1, i32* %5, align 4
  br label %43

27:                                               ; preds = %20
  %28 = load i32, i32* %6, align 4
  %29 = load i32, i32* %7, align 4
  %30 = mul nsw i32 %28, %29
  %31 = load i32, i32* %7, align 4
  %32 = sub nsw i32 %31, 1
  %33 = sdiv i32 %30, %32
  %34 = load i32, i32* %8, align 4
  %35 = add nsw i32 %33, %34
  store i32 %35, i32* %6, align 4
  %36 = load i32, i32* %9, align 4
  %37 = add nsw i32 %36, 1
  store i32 %37, i32* %9, align 4
  %38 = load i32, i32* %6, align 4
  %39 = load i32, i32* %7, align 4
  %40 = load i32, i32* %8, align 4
  %41 = load i32, i32* %9, align 4
  %42 = call i32 @num(i32 %38, i32 %39, i32 %40, i32 %41)
  br label %43

43:                                               ; preds = %26, %27, %16
  %44 = load i32, i32* %5, align 4
  ret i32 %44
}

declare dso_local i32 @printf(i8*, ...) #1

; Function Attrs: noreturn nounwind
declare dso_local void @exit(i32) #2

; Function Attrs: noinline nounwind uwtable
define dso_local i32 @main(i32 %0, i8** %1) #0 {
  %3 = alloca i32, align 4
  %4 = alloca i32, align 4
  %5 = alloca i8**, align 8
  %6 = alloca i32, align 4
  %7 = alloca i32, align 4
  %8 = alloca i32, align 4
  %9 = alloca i32, align 4
  %10 = alloca i32, align 4
  %11 = alloca i32, align 4
  store i32 0, i32* %3, align 4
  store i32 %0, i32* %4, align 4
  store i8** %1, i8*** %5, align 8
  store i32 0, i32* %11, align 4
  %12 = call i32 (i8*, ...) @__isoc99_scanf(i8* getelementptr inbounds ([5 x i8], [5 x i8]* @.str.1, i64 0, i64 0), i32* %7, i32* %8)
  store i32 1, i32* %10, align 4
  br label %13

13:                                               ; preds = %27, %2
  %14 = load i32, i32* %10, align 4
  %15 = load i32, i32* %7, align 4
  %16 = sub nsw i32 %15, 1
  %17 = mul nsw i32 %14, %16
  store i32 %17, i32* %6, align 4
  store i32 0, i32* %9, align 4
  %18 = load i32, i32* %6, align 4
  %19 = load i32, i32* %7, align 4
  %20 = load i32, i32* %8, align 4
  %21 = load i32, i32* %9, align 4
  %22 = call i32 @num(i32 %18, i32 %19, i32 %20, i32 %21)
  store i32 %22, i32* %11, align 4
  %23 = load i32, i32* %11, align 4
  %24 = icmp eq i32 %23, 2
  br i1 %24, label %25, label %26

25:                                               ; preds = %13
  br label %30

26:                                               ; preds = %13
  br label %27

27:                                               ; preds = %26
  %28 = load i32, i32* %10, align 4
  %29 = add nsw i32 %28, 1
  store i32 %29, i32* %10, align 4
  br label %13

30:                                               ; preds = %25
  ret i32 0
}

declare dso_local i32 @__isoc99_scanf(i8*, ...) #1


!llvm.module.flags = !{!0}
!llvm.ident = !{!1}

!0 = !{i32 1, !"wchar_size", i32 4}
!1 = !{!"clang version 10.0.0-4ubuntu1 "}
